(lp0
((itrends.time_bucket
TimeBucket
p1
(dp2
S'datetime_format'
p3
S'%Y%m%d%H%M%S'
p4
sS'start_time'
p5
cdatetime
datetime
p6
(S'\x07\xde\x08\x18\x02\x00\x00\x00\x00\x00'
p7
tp8
Rp9
sS'stop_time'
p10
g6
(S'\x07\xde\x08\x18\x04\x00\x00\x00\x00\x00'
p11
tp12
Rp13
sbI76
tp14
a((itrends.time_bucket
TimeBucket
p15
(dp16
g3
g4
sg5
g13
sg10
g6
(S'\x07\xde\x08\x18\x06\x00\x00\x00\x00\x00'
p17
tp18
Rp19
sbI72
tp20
a((itrends.time_bucket
TimeBucket
p21
(dp22
g3
g4
sg5
g19
sg10
g6
(S'\x07\xde\x08\x18\x08\x00\x00\x00\x00\x00'
p23
tp24
Rp25
sbI64
tp26
a((itrends.time_bucket
TimeBucket
p27
(dp28
g3
g4
sg5
g25
sg10
g6
(S'\x07\xde\x08\x18\n\x00\x00\x00\x00\x00'
p29
tp30
Rp31
sbI34
tp32
a((itrends.time_bucket
TimeBucket
p33
(dp34
g3
g4
sg5
g31
sg10
g6
(S'\x07\xde\x08\x18\x0c\x00\x00\x00\x00\x00'
p35
tp36
Rp37
sbI34
tp38
a((itrends.time_bucket
TimeBucket
p39
(dp40
g3
g4
sg5
g37
sg10
g6
(S'\x07\xde\x08\x18\x0e\x00\x00\x00\x00\x00'
p41
tp42
Rp43
sbI66
tp44
a((itrends.time_bucket
TimeBucket
p45
(dp46
g3
g4
sg5
g43
sg10
g6
(S'\x07\xde\x08\x18\x10\x00\x00\x00\x00\x00'
p47
tp48
Rp49
sbI45
tp50
a((itrends.time_bucket
TimeBucket
p51
(dp52
g3
g4
sg5
g49
sg10
g6
(S'\x07\xde\x08\x18\x12\x00\x00\x00\x00\x00'
p53
tp54
Rp55
sbI76
tp56
a((itrends.time_bucket
TimeBucket
p57
(dp58
g3
g4
sg5
g55
sg10
g6
(S'\x07\xde\x08\x18\x14\x00\x00\x00\x00\x00'
p59
tp60
Rp61
sbI57
tp62
a((itrends.time_bucket
TimeBucket
p63
(dp64
g3
g4
sg5
g61
sg10
g6
(S'\x07\xde\x08\x18\x16\x00\x00\x00\x00\x00'
p65
tp66
Rp67
sbI65
tp68
a((itrends.time_bucket
TimeBucket
p69
(dp70
g3
g4
sg5
g67
sg10
g6
(S'\x07\xde\x08\x19\x00\x00\x00\x00\x00\x00'
p71
tp72
Rp73
sbI44
tp74
a((itrends.time_bucket
TimeBucket
p75
(dp76
g3
g4
sg5
g73
sg10
g6
(S'\x07\xde\x08\x19\x02\x00\x00\x00\x00\x00'
p77
tp78
Rp79
sbI148
tp80
a((itrends.time_bucket
TimeBucket
p81
(dp82
g3
g4
sg5
g79
sg10
g6
(S'\x07\xde\x08\x19\x04\x00\x00\x00\x00\x00'
p83
tp84
Rp85
sbI142
tp86
a((itrends.time_bucket
TimeBucket
p87
(dp88
g3
g4
sg5
g85
sg10
g6
(S'\x07\xde\x08\x19\x06\x00\x00\x00\x00\x00'
p89
tp90
Rp91
sbI58
tp92
a((itrends.time_bucket
TimeBucket
p93
(dp94
g3
g4
sg5
g91
sg10
g6
(S'\x07\xde\x08\x19\x08\x00\x00\x00\x00\x00'
p95
tp96
Rp97
sbI34
tp98
a((itrends.time_bucket
TimeBucket
p99
(dp100
g3
g4
sg5
g97
sg10
g6
(S'\x07\xde\x08\x19\n\x00\x00\x00\x00\x00'
p101
tp102
Rp103
sbI40
tp104
a((itrends.time_bucket
TimeBucket
p105
(dp106
g3
g4
sg5
g103
sg10
g6
(S'\x07\xde\x08\x19\x0c\x00\x00\x00\x00\x00'
p107
tp108
Rp109
sbI17
tp110
a((itrends.time_bucket
TimeBucket
p111
(dp112
g3
g4
sg5
g109
sg10
g6
(S'\x07\xde\x08\x19\x0e\x00\x00\x00\x00\x00'
p113
tp114
Rp115
sbI56
tp116
a((itrends.time_bucket
TimeBucket
p117
(dp118
g3
g4
sg5
g115
sg10
g6
(S'\x07\xde\x08\x19\x10\x00\x00\x00\x00\x00'
p119
tp120
Rp121
sbI56
tp122
a((itrends.time_bucket
TimeBucket
p123
(dp124
g3
g4
sg5
g121
sg10
g6
(S'\x07\xde\x08\x19\x12\x00\x00\x00\x00\x00'
p125
tp126
Rp127
sbI73
tp128
a((itrends.time_bucket
TimeBucket
p129
(dp130
g3
g4
sg5
g127
sg10
g6
(S'\x07\xde\x08\x19\x14\x00\x00\x00\x00\x00'
p131
tp132
Rp133
sbI569
tp134
a((itrends.time_bucket
TimeBucket
p135
(dp136
g3
g4
sg5
g133
sg10
g6
(S'\x07\xde\x08\x19\x16\x00\x00\x00\x00\x00'
p137
tp138
Rp139
sbI217
tp140
a((itrends.time_bucket
TimeBucket
p141
(dp142
g3
g4
sg5
g139
sg10
g6
(S'\x07\xde\x08\x1a\x00\x00\x00\x00\x00\x00'
p143
tp144
Rp145
sbI114
tp146
a((itrends.time_bucket
TimeBucket
p147
(dp148
g3
g4
sg5
g145
sg10
g6
(S'\x07\xde\x08\x1a\x02\x00\x00\x00\x00\x00'
p149
tp150
Rp151
sbI120
tp152
a((itrends.time_bucket
TimeBucket
p153
(dp154
g3
g4
sg5
g151
sg10
g6
(S'\x07\xde\x08\x1a\x04\x00\x00\x00\x00\x00'
p155
tp156
Rp157
sbI110
tp158
a((itrends.time_bucket
TimeBucket
p159
(dp160
g3
g4
sg5
g157
sg10
g6
(S'\x07\xde\x08\x1a\x06\x00\x00\x00\x00\x00'
p161
tp162
Rp163
sbI96
tp164
a((itrends.time_bucket
TimeBucket
p165
(dp166
g3
g4
sg5
g163
sg10
g6
(S'\x07\xde\x08\x1a\x08\x00\x00\x00\x00\x00'
p167
tp168
Rp169
sbI229
tp170
a((itrends.time_bucket
TimeBucket
p171
(dp172
g3
g4
sg5
g169
sg10
g6
(S'\x07\xde\x08\x1a\n\x00\x00\x00\x00\x00'
p173
tp174
Rp175
sbI261
tp176
a((itrends.time_bucket
TimeBucket
p177
(dp178
g3
g4
sg5
g175
sg10
g6
(S'\x07\xde\x08\x1a\x0c\x00\x00\x00\x00\x00'
p179
tp180
Rp181
sbI279
tp182
a((itrends.time_bucket
TimeBucket
p183
(dp184
g3
g4
sg5
g181
sg10
g6
(S'\x07\xde\x08\x1a\x0e\x00\x00\x00\x00\x00'
p185
tp186
Rp187
sbI232
tp188
a((itrends.time_bucket
TimeBucket
p189
(dp190
g3
g4
sg5
g187
sg10
g6
(S'\x07\xde\x08\x1a\x10\x00\x00\x00\x00\x00'
p191
tp192
Rp193
sbI227
tp194
a((itrends.time_bucket
TimeBucket
p195
(dp196
g3
g4
sg5
g193
sg10
g6
(S'\x07\xde\x08\x1a\x12\x00\x00\x00\x00\x00'
p197
tp198
Rp199
sbI166
tp200
a((itrends.time_bucket
TimeBucket
p201
(dp202
g3
g4
sg5
g199
sg10
g6
(S'\x07\xde\x08\x1a\x14\x00\x00\x00\x00\x00'
p203
tp204
Rp205
sbI134
tp206
a((itrends.time_bucket
TimeBucket
p207
(dp208
g3
g4
sg5
g205
sg10
g6
(S'\x07\xde\x08\x1a\x16\x00\x00\x00\x00\x00'
p209
tp210
Rp211
sbI114
tp212
a((itrends.time_bucket
TimeBucket
p213
(dp214
g3
g4
sg5
g211
sg10
g6
(S'\x07\xde\x08\x1b\x00\x00\x00\x00\x00\x00'
p215
tp216
Rp217
sbI237
tp218
a((itrends.time_bucket
TimeBucket
p219
(dp220
g3
g4
sg5
g217
sg10
g6
(S'\x07\xde\x08\x1b\x02\x00\x00\x00\x00\x00'
p221
tp222
Rp223
sbI174
tp224
a((itrends.time_bucket
TimeBucket
p225
(dp226
g3
g4
sg5
g223
sg10
g6
(S'\x07\xde\x08\x1b\x04\x00\x00\x00\x00\x00'
p227
tp228
Rp229
sbI191
tp230
a((itrends.time_bucket
TimeBucket
p231
(dp232
g3
g4
sg5
g229
sg10
g6
(S'\x07\xde\x08\x1b\x06\x00\x00\x00\x00\x00'
p233
tp234
Rp235
sbI145
tp236
a((itrends.time_bucket
TimeBucket
p237
(dp238
g3
g4
sg5
g235
sg10
g6
(S'\x07\xde\x08\x1b\x08\x00\x00\x00\x00\x00'
p239
tp240
Rp241
sbI153
tp242
a((itrends.time_bucket
TimeBucket
p243
(dp244
g3
g4
sg5
g241
sg10
g6
(S'\x07\xde\x08\x1b\n\x00\x00\x00\x00\x00'
p245
tp246
Rp247
sbI143
tp248
a((itrends.time_bucket
TimeBucket
p249
(dp250
g3
g4
sg5
g247
sg10
g6
(S'\x07\xde\x08\x1b\x0c\x00\x00\x00\x00\x00'
p251
tp252
Rp253
sbI88
tp254
a((itrends.time_bucket
TimeBucket
p255
(dp256
g3
g4
sg5
g253
sg10
g6
(S'\x07\xde\x08\x1b\x0e\x00\x00\x00\x00\x00'
p257
tp258
Rp259
sbI143
tp260
a((itrends.time_bucket
TimeBucket
p261
(dp262
g3
g4
sg5
g259
sg10
g6
(S'\x07\xde\x08\x1b\x10\x00\x00\x00\x00\x00'
p263
tp264
Rp265
sbI175
tp266
a((itrends.time_bucket
TimeBucket
p267
(dp268
g3
g4
sg5
g265
sg10
g6
(S'\x07\xde\x08\x1b\x12\x00\x00\x00\x00\x00'
p269
tp270
Rp271
sbI60
tp272
a((itrends.time_bucket
TimeBucket
p273
(dp274
g3
g4
sg5
g271
sg10
g6
(S'\x07\xde\x08\x1b\x14\x00\x00\x00\x00\x00'
p275
tp276
Rp277
sbI217
tp278
a((itrends.time_bucket
TimeBucket
p279
(dp280
g3
g4
sg5
g277
sg10
g6
(S'\x07\xde\x08\x1b\x16\x00\x00\x00\x00\x00'
p281
tp282
Rp283
sbI245
tp284
a((itrends.time_bucket
TimeBucket
p285
(dp286
g3
g4
sg5
g283
sg10
g6
(S'\x07\xde\x08\x1c\x00\x00\x00\x00\x00\x00'
p287
tp288
Rp289
sbI88
tp290
a((itrends.time_bucket
TimeBucket
p291
(dp292
g3
g4
sg5
g289
sg10
g6
(S'\x07\xde\x08\x1c\x02\x00\x00\x00\x00\x00'
p293
tp294
Rp295
sbI125
tp296
a((itrends.time_bucket
TimeBucket
p297
(dp298
g3
g4
sg5
g295
sg10
g6
(S'\x07\xde\x08\x1c\x04\x00\x00\x00\x00\x00'
p299
tp300
Rp301
sbI112
tp302
a((itrends.time_bucket
TimeBucket
p303
(dp304
g3
g4
sg5
g301
sg10
g6
(S'\x07\xde\x08\x1c\x06\x00\x00\x00\x00\x00'
p305
tp306
Rp307
sbI74
tp308
a((itrends.time_bucket
TimeBucket
p309
(dp310
g3
g4
sg5
g307
sg10
g6
(S'\x07\xde\x08\x1c\x08\x00\x00\x00\x00\x00'
p311
tp312
Rp313
sbI61
tp314
a((itrends.time_bucket
TimeBucket
p315
(dp316
g3
g4
sg5
g313
sg10
g6
(S'\x07\xde\x08\x1c\n\x00\x00\x00\x00\x00'
p317
tp318
Rp319
sbI63
tp320
a((itrends.time_bucket
TimeBucket
p321
(dp322
g3
g4
sg5
g319
sg10
g6
(S'\x07\xde\x08\x1c\x0c\x00\x00\x00\x00\x00'
p323
tp324
Rp325
sbI107
tp326
a((itrends.time_bucket
TimeBucket
p327
(dp328
g3
g4
sg5
g325
sg10
g6
(S'\x07\xde\x08\x1c\x0e\x00\x00\x00\x00\x00'
p329
tp330
Rp331
sbI152
tp332
a((itrends.time_bucket
TimeBucket
p333
(dp334
g3
g4
sg5
g331
sg10
g6
(S'\x07\xde\x08\x1c\x10\x00\x00\x00\x00\x00'
p335
tp336
Rp337
sbI219
tp338
a((itrends.time_bucket
TimeBucket
p339
(dp340
g3
g4
sg5
g337
sg10
g6
(S'\x07\xde\x08\x1c\x12\x00\x00\x00\x00\x00'
p341
tp342
Rp343
sbI147
tp344
a((itrends.time_bucket
TimeBucket
p345
(dp346
g3
g4
sg5
g343
sg10
g6
(S'\x07\xde\x08\x1c\x14\x00\x00\x00\x00\x00'
p347
tp348
Rp349
sbI151
tp350
a((itrends.time_bucket
TimeBucket
p351
(dp352
g3
g4
sg5
g349
sg10
g6
(S'\x07\xde\x08\x1c\x16\x00\x00\x00\x00\x00'
p353
tp354
Rp355
sbI225
tp356
a((itrends.time_bucket
TimeBucket
p357
(dp358
g3
g4
sg5
g355
sg10
g6
(S'\x07\xde\x08\x1d\x00\x00\x00\x00\x00\x00'
p359
tp360
Rp361
sbI113
tp362
a((itrends.time_bucket
TimeBucket
p363
(dp364
g3
g4
sg5
g361
sg10
g6
(S'\x07\xde\x08\x1d\x02\x00\x00\x00\x00\x00'
p365
tp366
Rp367
sbI117
tp368
a((itrends.time_bucket
TimeBucket
p369
(dp370
g3
g4
sg5
g367
sg10
g6
(S'\x07\xde\x08\x1d\x04\x00\x00\x00\x00\x00'
p371
tp372
Rp373
sbI164
tp374
a((itrends.time_bucket
TimeBucket
p375
(dp376
g3
g4
sg5
g373
sg10
g6
(S'\x07\xde\x08\x1d\x06\x00\x00\x00\x00\x00'
p377
tp378
Rp379
sbI173
tp380
a((itrends.time_bucket
TimeBucket
p381
(dp382
g3
g4
sg5
g379
sg10
g6
(S'\x07\xde\x08\x1d\x08\x00\x00\x00\x00\x00'
p383
tp384
Rp385
sbI193
tp386
a((itrends.time_bucket
TimeBucket
p387
(dp388
g3
g4
sg5
g385
sg10
g6
(S'\x07\xde\x08\x1d\n\x00\x00\x00\x00\x00'
p389
tp390
Rp391
sbI171
tp392
a((itrends.time_bucket
TimeBucket
p393
(dp394
g3
g4
sg5
g391
sg10
g6
(S'\x07\xde\x08\x1d\x0c\x00\x00\x00\x00\x00'
p395
tp396
Rp397
sbI179
tp398
a((itrends.time_bucket
TimeBucket
p399
(dp400
g3
g4
sg5
g397
sg10
g6
(S'\x07\xde\x08\x1d\x0e\x00\x00\x00\x00\x00'
p401
tp402
Rp403
sbI243
tp404
a((itrends.time_bucket
TimeBucket
p405
(dp406
g3
g4
sg5
g403
sg10
g6
(S'\x07\xde\x08\x1d\x10\x00\x00\x00\x00\x00'
p407
tp408
Rp409
sbI148
tp410
a((itrends.time_bucket
TimeBucket
p411
(dp412
g3
g4
sg5
g409
sg10
g6
(S'\x07\xde\x08\x1d\x12\x00\x00\x00\x00\x00'
p413
tp414
Rp415
sbI169
tp416
a((itrends.time_bucket
TimeBucket
p417
(dp418
g3
g4
sg5
g415
sg10
g6
(S'\x07\xde\x08\x1d\x14\x00\x00\x00\x00\x00'
p419
tp420
Rp421
sbI232
tp422
a((itrends.time_bucket
TimeBucket
p423
(dp424
g3
g4
sg5
g421
sg10
g6
(S'\x07\xde\x08\x1d\x16\x00\x00\x00\x00\x00'
p425
tp426
Rp427
sbI247
tp428
a((itrends.time_bucket
TimeBucket
p429
(dp430
g3
g4
sg5
g427
sg10
g6
(S'\x07\xde\x08\x1e\x00\x00\x00\x00\x00\x00'
p431
tp432
Rp433
sbI102
tp434
a((itrends.time_bucket
TimeBucket
p435
(dp436
g3
g4
sg5
g433
sg10
g6
(S'\x07\xde\x08\x1e\x02\x00\x00\x00\x00\x00'
p437
tp438
Rp439
sbI98
tp440
a((itrends.time_bucket
TimeBucket
p441
(dp442
g3
g4
sg5
g439
sg10
g6
(S'\x07\xde\x08\x1e\x04\x00\x00\x00\x00\x00'
p443
tp444
Rp445
sbI125
tp446
a((itrends.time_bucket
TimeBucket
p447
(dp448
g3
g4
sg5
g445
sg10
g6
(S'\x07\xde\x08\x1e\x06\x00\x00\x00\x00\x00'
p449
tp450
Rp451
sbI68
tp452
a((itrends.time_bucket
TimeBucket
p453
(dp454
g3
g4
sg5
g451
sg10
g6
(S'\x07\xde\x08\x1e\x08\x00\x00\x00\x00\x00'
p455
tp456
Rp457
sbI81
tp458
a((itrends.time_bucket
TimeBucket
p459
(dp460
g3
g4
sg5
g457
sg10
g6
(S'\x07\xde\x08\x1e\n\x00\x00\x00\x00\x00'
p461
tp462
Rp463
sbI79
tp464
a((itrends.time_bucket
TimeBucket
p465
(dp466
g3
g4
sg5
g463
sg10
g6
(S'\x07\xde\x08\x1e\x0c\x00\x00\x00\x00\x00'
p467
tp468
Rp469
sbI107
tp470
a((itrends.time_bucket
TimeBucket
p471
(dp472
g3
g4
sg5
g469
sg10
g6
(S'\x07\xde\x08\x1e\x0e\x00\x00\x00\x00\x00'
p473
tp474
Rp475
sbI162
tp476
a((itrends.time_bucket
TimeBucket
p477
(dp478
g3
g4
sg5
g475
sg10
g6
(S'\x07\xde\x08\x1e\x10\x00\x00\x00\x00\x00'
p479
tp480
Rp481
sbI172
tp482
a((itrends.time_bucket
TimeBucket
p483
(dp484
g3
g4
sg5
g481
sg10
g6
(S'\x07\xde\x08\x1e\x12\x00\x00\x00\x00\x00'
p485
tp486
Rp487
sbI110
tp488
a((itrends.time_bucket
TimeBucket
p489
(dp490
g3
g4
sg5
g487
sg10
g6
(S'\x07\xde\x08\x1e\x14\x00\x00\x00\x00\x00'
p491
tp492
Rp493
sbI71
tp494
a((itrends.time_bucket
TimeBucket
p495
(dp496
g3
g4
sg5
g493
sg10
g6
(S'\x07\xde\x08\x1e\x16\x00\x00\x00\x00\x00'
p497
tp498
Rp499
sbI168
tp500
a((itrends.time_bucket
TimeBucket
p501
(dp502
g3
g4
sg5
g499
sg10
g6
(S'\x07\xde\x08\x1f\x00\x00\x00\x00\x00\x00'
p503
tp504
Rp505
sbI74
tp506
a((itrends.time_bucket
TimeBucket
p507
(dp508
g3
g4
sg5
g505
sg10
g6
(S'\x07\xde\x08\x1f\x02\x00\x00\x00\x00\x00'
p509
tp510
Rp511
sbI98
tp512
a((itrends.time_bucket
TimeBucket
p513
(dp514
g3
g4
sg5
g511
sg10
g6
(S'\x07\xde\x08\x1f\x04\x00\x00\x00\x00\x00'
p515
tp516
Rp517
sbI75
tp518
a((itrends.time_bucket
TimeBucket
p519
(dp520
g3
g4
sg5
g517
sg10
g6
(S'\x07\xde\x08\x1f\x06\x00\x00\x00\x00\x00'
p521
tp522
Rp523
sbI39
tp524
a((itrends.time_bucket
TimeBucket
p525
(dp526
g3
g4
sg5
g523
sg10
g6
(S'\x07\xde\x08\x1f\x08\x00\x00\x00\x00\x00'
p527
tp528
Rp529
sbI27
tp530
a((itrends.time_bucket
TimeBucket
p531
(dp532
g3
g4
sg5
g529
sg10
g6
(S'\x07\xde\x08\x1f\n\x00\x00\x00\x00\x00'
p533
tp534
Rp535
sbI34
tp536
a((itrends.time_bucket
TimeBucket
p537
(dp538
g3
g4
sg5
g535
sg10
g6
(S'\x07\xde\x08\x1f\x0c\x00\x00\x00\x00\x00'
p539
tp540
Rp541
sbI53
tp542
a((itrends.time_bucket
TimeBucket
p543
(dp544
g3
g4
sg5
g541
sg10
g6
(S'\x07\xde\x08\x1f\x0e\x00\x00\x00\x00\x00'
p545
tp546
Rp547
sbI69
tp548
a((itrends.time_bucket
TimeBucket
p549
(dp550
g3
g4
sg5
g547
sg10
g6
(S'\x07\xde\x08\x1f\x10\x00\x00\x00\x00\x00'
p551
tp552
Rp553
sbI73
tp554
a((itrends.time_bucket
TimeBucket
p555
(dp556
g3
g4
sg5
g553
sg10
g6
(S'\x07\xde\x08\x1f\x12\x00\x00\x00\x00\x00'
p557
tp558
Rp559
sbI135
tp560
a((itrends.time_bucket
TimeBucket
p561
(dp562
g3
g4
sg5
g559
sg10
g6
(S'\x07\xde\x08\x1f\x14\x00\x00\x00\x00\x00'
p563
tp564
Rp565
sbI172
tp566
a((itrends.time_bucket
TimeBucket
p567
(dp568
g3
g4
sg5
g565
sg10
g6
(S'\x07\xde\x08\x1f\x16\x00\x00\x00\x00\x00'
p569
tp570
Rp571
sbI85
tp572
a((itrends.time_bucket
TimeBucket
p573
(dp574
g3
g4
sg5
g571
sg10
g6
(S'\x07\xde\t\x01\x00\x00\x00\x00\x00\x00'
p575
tp576
Rp577
sbI97
tp578
a((itrends.time_bucket
TimeBucket
p579
(dp580
g3
g4
sg5
g577
sg10
g6
(S'\x07\xde\t\x01\x02\x00\x00\x00\x00\x00'
p581
tp582
Rp583
sbI110
tp584
a((itrends.time_bucket
TimeBucket
p585
(dp586
g3
g4
sg5
g583
sg10
g6
(S'\x07\xde\t\x01\x04\x00\x00\x00\x00\x00'
p587
tp588
Rp589
sbI91
tp590
a((itrends.time_bucket
TimeBucket
p591
(dp592
g3
g4
sg5
g589
sg10
g6
(S'\x07\xde\t\x01\x06\x00\x00\x00\x00\x00'
p593
tp594
Rp595
sbI96
tp596
a((itrends.time_bucket
TimeBucket
p597
(dp598
g3
g4
sg5
g595
sg10
g6
(S'\x07\xde\t\x01\x08\x00\x00\x00\x00\x00'
p599
tp600
Rp601
sbI60
tp602
a((itrends.time_bucket
TimeBucket
p603
(dp604
g3
g4
sg5
g601
sg10
g6
(S'\x07\xde\t\x01\n\x00\x00\x00\x00\x00'
p605
tp606
Rp607
sbI29
tp608
a((itrends.time_bucket
TimeBucket
p609
(dp610
g3
g4
sg5
g607
sg10
g6
(S'\x07\xde\t\x01\x0c\x00\x00\x00\x00\x00'
p611
tp612
Rp613
sbI39
tp614
a((itrends.time_bucket
TimeBucket
p615
(dp616
g3
g4
sg5
g613
sg10
g6
(S'\x07\xde\t\x01\x0e\x00\x00\x00\x00\x00'
p617
tp618
Rp619
sbI115
tp620
a((itrends.time_bucket
TimeBucket
p621
(dp622
g3
g4
sg5
g619
sg10
g6
(S'\x07\xde\t\x01\x10\x00\x00\x00\x00\x00'
p623
tp624
Rp625
sbI99
tp626
a((itrends.time_bucket
TimeBucket
p627
(dp628
g3
g4
sg5
g625
sg10
g6
(S'\x07\xde\t\x01\x12\x00\x00\x00\x00\x00'
p629
tp630
Rp631
sbI111
tp632
a((itrends.time_bucket
TimeBucket
p633
(dp634
g3
g4
sg5
g631
sg10
g6
(S'\x07\xde\t\x01\x14\x00\x00\x00\x00\x00'
p635
tp636
Rp637
sbI203
tp638
a((itrends.time_bucket
TimeBucket
p639
(dp640
g3
g4
sg5
g637
sg10
g6
(S'\x07\xde\t\x01\x16\x00\x00\x00\x00\x00'
p641
tp642
Rp643
sbI128
tp644
a((itrends.time_bucket
TimeBucket
p645
(dp646
g3
g4
sg5
g643
sg10
g6
(S'\x07\xde\t\x02\x00\x00\x00\x00\x00\x00'
p647
tp648
Rp649
sbI74
tp650
a((itrends.time_bucket
TimeBucket
p651
(dp652
g3
g4
sg5
g649
sg10
g6
(S'\x07\xde\t\x02\x02\x00\x00\x00\x00\x00'
p653
tp654
Rp655
sbI61
tp656
a((itrends.time_bucket
TimeBucket
p657
(dp658
g3
g4
sg5
g655
sg10
g6
(S'\x07\xde\t\x02\x04\x00\x00\x00\x00\x00'
p659
tp660
Rp661
sbI80
tp662
a((itrends.time_bucket
TimeBucket
p663
(dp664
g3
g4
sg5
g661
sg10
g6
(S'\x07\xde\t\x02\x06\x00\x00\x00\x00\x00'
p665
tp666
Rp667
sbI109
tp668
a((itrends.time_bucket
TimeBucket
p669
(dp670
g3
g4
sg5
g667
sg10
g6
(S'\x07\xde\t\x02\x08\x00\x00\x00\x00\x00'
p671
tp672
Rp673
sbI75
tp674
a((itrends.time_bucket
TimeBucket
p675
(dp676
g3
g4
sg5
g673
sg10
g6
(S'\x07\xde\t\x02\n\x00\x00\x00\x00\x00'
p677
tp678
Rp679
sbI97
tp680
a((itrends.time_bucket
TimeBucket
p681
(dp682
g3
g4
sg5
g679
sg10
g6
(S'\x07\xde\t\x02\x0c\x00\x00\x00\x00\x00'
p683
tp684
Rp685
sbI85
tp686
a((itrends.time_bucket
TimeBucket
p687
(dp688
g3
g4
sg5
g685
sg10
g6
(S'\x07\xde\t\x02\x0e\x00\x00\x00\x00\x00'
p689
tp690
Rp691
sbI96
tp692
a((itrends.time_bucket
TimeBucket
p693
(dp694
g3
g4
sg5
g691
sg10
g6
(S'\x07\xde\t\x02\x10\x00\x00\x00\x00\x00'
p695
tp696
Rp697
sbI224
tp698
a((itrends.time_bucket
TimeBucket
p699
(dp700
g3
g4
sg5
g697
sg10
g6
(S'\x07\xde\t\x02\x12\x00\x00\x00\x00\x00'
p701
tp702
Rp703
sbI161
tp704
a((itrends.time_bucket
TimeBucket
p705
(dp706
g3
g4
sg5
g703
sg10
g6
(S'\x07\xde\t\x02\x14\x00\x00\x00\x00\x00'
p707
tp708
Rp709
sbI226
tp710
a((itrends.time_bucket
TimeBucket
p711
(dp712
g3
g4
sg5
g709
sg10
g6
(S'\x07\xde\t\x02\x16\x00\x00\x00\x00\x00'
p713
tp714
Rp715
sbI231
tp716
a((itrends.time_bucket
TimeBucket
p717
(dp718
g3
g4
sg5
g715
sg10
g6
(S'\x07\xde\t\x03\x00\x00\x00\x00\x00\x00'
p719
tp720
Rp721
sbI185
tp722
a((itrends.time_bucket
TimeBucket
p723
(dp724
g3
g4
sg5
g721
sg10
g6
(S'\x07\xde\t\x03\x02\x00\x00\x00\x00\x00'
p725
tp726
Rp727
sbI209
tp728
a((itrends.time_bucket
TimeBucket
p729
(dp730
g3
g4
sg5
g727
sg10
g6
(S'\x07\xde\t\x03\x04\x00\x00\x00\x00\x00'
p731
tp732
Rp733
sbI94
tp734
a((itrends.time_bucket
TimeBucket
p735
(dp736
g3
g4
sg5
g733
sg10
g6
(S'\x07\xde\t\x03\x06\x00\x00\x00\x00\x00'
p737
tp738
Rp739
sbI127
tp740
a((itrends.time_bucket
TimeBucket
p741
(dp742
g3
g4
sg5
g739
sg10
g6
(S'\x07\xde\t\x03\x08\x00\x00\x00\x00\x00'
p743
tp744
Rp745
sbI69
tp746
a((itrends.time_bucket
TimeBucket
p747
(dp748
g3
g4
sg5
g745
sg10
g6
(S'\x07\xde\t\x03\n\x00\x00\x00\x00\x00'
p749
tp750
Rp751
sbI89
tp752
a((itrends.time_bucket
TimeBucket
p753
(dp754
g3
g4
sg5
g751
sg10
g6
(S'\x07\xde\t\x03\x0c\x00\x00\x00\x00\x00'
p755
tp756
Rp757
sbI123
tp758
a((itrends.time_bucket
TimeBucket
p759
(dp760
g3
g4
sg5
g757
sg10
g6
(S'\x07\xde\t\x03\x0e\x00\x00\x00\x00\x00'
p761
tp762
Rp763
sbI211
tp764
a((itrends.time_bucket
TimeBucket
p765
(dp766
g3
g4
sg5
g763
sg10
g6
(S'\x07\xde\t\x03\x10\x00\x00\x00\x00\x00'
p767
tp768
Rp769
sbI222
tp770
a((itrends.time_bucket
TimeBucket
p771
(dp772
g3
g4
sg5
g769
sg10
g6
(S'\x07\xde\t\x03\x12\x00\x00\x00\x00\x00'
p773
tp774
Rp775
sbI205
tp776
a((itrends.time_bucket
TimeBucket
p777
(dp778
g3
g4
sg5
g775
sg10
g6
(S'\x07\xde\t\x03\x14\x00\x00\x00\x00\x00'
p779
tp780
Rp781
sbI180
tp782
a((itrends.time_bucket
TimeBucket
p783
(dp784
g3
g4
sg5
g781
sg10
g6
(S'\x07\xde\t\x03\x16\x00\x00\x00\x00\x00'
p785
tp786
Rp787
sbI115
tp788
a((itrends.time_bucket
TimeBucket
p789
(dp790
g3
g4
sg5
g787
sg10
g6
(S'\x07\xde\t\x04\x00\x00\x00\x00\x00\x00'
p791
tp792
Rp793
sbI95
tp794
a((itrends.time_bucket
TimeBucket
p795
(dp796
g3
g4
sg5
g793
sg10
g6
(S'\x07\xde\t\x04\x02\x00\x00\x00\x00\x00'
p797
tp798
Rp799
sbI111
tp800
a((itrends.time_bucket
TimeBucket
p801
(dp802
g3
g4
sg5
g799
sg10
g6
(S'\x07\xde\t\x04\x04\x00\x00\x00\x00\x00'
p803
tp804
Rp805
sbI128
tp806
a((itrends.time_bucket
TimeBucket
p807
(dp808
g3
g4
sg5
g805
sg10
g6
(S'\x07\xde\t\x04\x06\x00\x00\x00\x00\x00'
p809
tp810
Rp811
sbI88
tp812
a((itrends.time_bucket
TimeBucket
p813
(dp814
g3
g4
sg5
g811
sg10
g6
(S'\x07\xde\t\x04\x08\x00\x00\x00\x00\x00'
p815
tp816
Rp817
sbI50
tp818
a((itrends.time_bucket
TimeBucket
p819
(dp820
g3
g4
sg5
g817
sg10
g6
(S'\x07\xde\t\x04\n\x00\x00\x00\x00\x00'
p821
tp822
Rp823
sbI51
tp824
a((itrends.time_bucket
TimeBucket
p825
(dp826
g3
g4
sg5
g823
sg10
g6
(S'\x07\xde\t\x04\x0c\x00\x00\x00\x00\x00'
p827
tp828
Rp829
sbI45
tp830
a((itrends.time_bucket
TimeBucket
p831
(dp832
g3
g4
sg5
g829
sg10
g6
(S'\x07\xde\t\x04\x0e\x00\x00\x00\x00\x00'
p833
tp834
Rp835
sbI94
tp836
a((itrends.time_bucket
TimeBucket
p837
(dp838
g3
g4
sg5
g835
sg10
g6
(S'\x07\xde\t\x04\x10\x00\x00\x00\x00\x00'
p839
tp840
Rp841
sbI128
tp842
a((itrends.time_bucket
TimeBucket
p843
(dp844
g3
g4
sg5
g841
sg10
g6
(S'\x07\xde\t\x04\x12\x00\x00\x00\x00\x00'
p845
tp846
Rp847
sbI136
tp848
a((itrends.time_bucket
TimeBucket
p849
(dp850
g3
g4
sg5
g847
sg10
g6
(S'\x07\xde\t\x04\x14\x00\x00\x00\x00\x00'
p851
tp852
Rp853
sbI146
tp854
a((itrends.time_bucket
TimeBucket
p855
(dp856
g3
g4
sg5
g853
sg10
g6
(S'\x07\xde\t\x04\x16\x00\x00\x00\x00\x00'
p857
tp858
Rp859
sbI121
tp860
a((itrends.time_bucket
TimeBucket
p861
(dp862
g3
g4
sg5
g859
sg10
g6
(S'\x07\xde\t\x05\x00\x00\x00\x00\x00\x00'
p863
tp864
Rp865
sbI104
tp866
a((itrends.time_bucket
TimeBucket
p867
(dp868
g3
g4
sg5
g865
sg10
g6
(S'\x07\xde\t\x05\x02\x00\x00\x00\x00\x00'
p869
tp870
Rp871
sbI125
tp872
a((itrends.time_bucket
TimeBucket
p873
(dp874
g3
g4
sg5
g871
sg10
g6
(S'\x07\xde\t\x05\x04\x00\x00\x00\x00\x00'
p875
tp876
Rp877
sbI117
tp878
a((itrends.time_bucket
TimeBucket
p879
(dp880
g3
g4
sg5
g877
sg10
g6
(S'\x07\xde\t\x05\x06\x00\x00\x00\x00\x00'
p881
tp882
Rp883
sbI59
tp884
a((itrends.time_bucket
TimeBucket
p885
(dp886
g3
g4
sg5
g883
sg10
g6
(S'\x07\xde\t\x05\x08\x00\x00\x00\x00\x00'
p887
tp888
Rp889
sbI65
tp890
a((itrends.time_bucket
TimeBucket
p891
(dp892
g3
g4
sg5
g889
sg10
g6
(S'\x07\xde\t\x05\n\x00\x00\x00\x00\x00'
p893
tp894
Rp895
sbI104
tp896
a((itrends.time_bucket
TimeBucket
p897
(dp898
g3
g4
sg5
g895
sg10
g6
(S'\x07\xde\t\x05\x0c\x00\x00\x00\x00\x00'
p899
tp900
Rp901
sbI311
tp902
a((itrends.time_bucket
TimeBucket
p903
(dp904
g3
g4
sg5
g901
sg10
g6
(S'\x07\xde\t\x05\x0e\x00\x00\x00\x00\x00'
p905
tp906
Rp907
sbI171
tp908
a((itrends.time_bucket
TimeBucket
p909
(dp910
g3
g4
sg5
g907
sg10
g6
(S'\x07\xde\t\x05\x10\x00\x00\x00\x00\x00'
p911
tp912
Rp913
sbI168
tp914
a((itrends.time_bucket
TimeBucket
p915
(dp916
g3
g4
sg5
g913
sg10
g6
(S'\x07\xde\t\x05\x12\x00\x00\x00\x00\x00'
p917
tp918
Rp919
sbI162
tp920
a((itrends.time_bucket
TimeBucket
p921
(dp922
g3
g4
sg5
g919
sg10
g6
(S'\x07\xde\t\x05\x14\x00\x00\x00\x00\x00'
p923
tp924
Rp925
sbI178
tp926
a((itrends.time_bucket
TimeBucket
p927
(dp928
g3
g4
sg5
g925
sg10
g6
(S'\x07\xde\t\x05\x16\x00\x00\x00\x00\x00'
p929
tp930
Rp931
sbI154
tp932
a((itrends.time_bucket
TimeBucket
p933
(dp934
g3
g4
sg5
g931
sg10
g6
(S'\x07\xde\t\x06\x00\x00\x00\x00\x00\x00'
p935
tp936
Rp937
sbI129
tp938
a((itrends.time_bucket
TimeBucket
p939
(dp940
g3
g4
sg5
g937
sg10
g6
(S'\x07\xde\t\x06\x02\x00\x00\x00\x00\x00'
p941
tp942
Rp943
sbI168
tp944
a((itrends.time_bucket
TimeBucket
p945
(dp946
g3
g4
sg5
g943
sg10
g6
(S'\x07\xde\t\x06\x04\x00\x00\x00\x00\x00'
p947
tp948
Rp949
sbI103
tp950
a((itrends.time_bucket
TimeBucket
p951
(dp952
g3
g4
sg5
g949
sg10
g6
(S'\x07\xde\t\x06\x06\x00\x00\x00\x00\x00'
p953
tp954
Rp955
sbI67
tp956
a((itrends.time_bucket
TimeBucket
p957
(dp958
g3
g4
sg5
g955
sg10
g6
(S'\x07\xde\t\x06\x08\x00\x00\x00\x00\x00'
p959
tp960
Rp961
sbI70
tp962
a((itrends.time_bucket
TimeBucket
p963
(dp964
g3
g4
sg5
g961
sg10
g6
(S'\x07\xde\t\x06\n\x00\x00\x00\x00\x00'
p965
tp966
Rp967
sbI41
tp968
a((itrends.time_bucket
TimeBucket
p969
(dp970
g3
g4
sg5
g967
sg10
g6
(S'\x07\xde\t\x06\x0c\x00\x00\x00\x00\x00'
p971
tp972
Rp973
sbI55
tp974
a((itrends.time_bucket
TimeBucket
p975
(dp976
g3
g4
sg5
g973
sg10
g6
(S'\x07\xde\t\x06\x0e\x00\x00\x00\x00\x00'
p977
tp978
Rp979
sbI120
tp980
a((itrends.time_bucket
TimeBucket
p981
(dp982
g3
g4
sg5
g979
sg10
g6
(S'\x07\xde\t\x06\x10\x00\x00\x00\x00\x00'
p983
tp984
Rp985
sbI123
tp986
a((itrends.time_bucket
TimeBucket
p987
(dp988
g3
g4
sg5
g985
sg10
g6
(S'\x07\xde\t\x06\x12\x00\x00\x00\x00\x00'
p989
tp990
Rp991
sbI107
tp992
a((itrends.time_bucket
TimeBucket
p993
(dp994
g3
g4
sg5
g991
sg10
g6
(S'\x07\xde\t\x06\x14\x00\x00\x00\x00\x00'
p995
tp996
Rp997
sbI116
tp998
a((itrends.time_bucket
TimeBucket
p999
(dp1000
g3
g4
sg5
g997
sg10
g6
(S'\x07\xde\t\x06\x16\x00\x00\x00\x00\x00'
p1001
tp1002
Rp1003
sbI70
tp1004
a((itrends.time_bucket
TimeBucket
p1005
(dp1006
g3
g4
sg5
g1003
sg10
g6
(S'\x07\xde\t\x07\x00\x00\x00\x00\x00\x00'
p1007
tp1008
Rp1009
sbI64
tp1010
a((itrends.time_bucket
TimeBucket
p1011
(dp1012
g3
g4
sg5
g1009
sg10
g6
(S'\x07\xde\t\x07\x02\x00\x00\x00\x00\x00'
p1013
tp1014
Rp1015
sbI120
tp1016
a((itrends.time_bucket
TimeBucket
p1017
(dp1018
g3
g4
sg5
g1015
sg10
g6
(S'\x07\xde\t\x07\x04\x00\x00\x00\x00\x00'
p1019
tp1020
Rp1021
sbI118
tp1022
a((itrends.time_bucket
TimeBucket
p1023
(dp1024
g3
g4
sg5
g1021
sg10
g6
(S'\x07\xde\t\x07\x06\x00\x00\x00\x00\x00'
p1025
tp1026
Rp1027
sbI91
tp1028
a((itrends.time_bucket
TimeBucket
p1029
(dp1030
g3
g4
sg5
g1027
sg10
g6
(S'\x07\xde\t\x07\x08\x00\x00\x00\x00\x00'
p1031
tp1032
Rp1033
sbI62
tp1034
a((itrends.time_bucket
TimeBucket
p1035
(dp1036
g3
g4
sg5
g1033
sg10
g6
(S'\x07\xde\t\x07\n\x00\x00\x00\x00\x00'
p1037
tp1038
Rp1039
sbI69
tp1040
a((itrends.time_bucket
TimeBucket
p1041
(dp1042
g3
g4
sg5
g1039
sg10
g6
(S'\x07\xde\t\x07\x0c\x00\x00\x00\x00\x00'
p1043
tp1044
Rp1045
sbI205
tp1046
a((itrends.time_bucket
TimeBucket
p1047
(dp1048
g3
g4
sg5
g1045
sg10
g6
(S'\x07\xde\t\x07\x0e\x00\x00\x00\x00\x00'
p1049
tp1050
Rp1051
sbI164
tp1052
a((itrends.time_bucket
TimeBucket
p1053
(dp1054
g3
g4
sg5
g1051
sg10
g6
(S'\x07\xde\t\x07\x10\x00\x00\x00\x00\x00'
p1055
tp1056
Rp1057
sbI116
tp1058
a((itrends.time_bucket
TimeBucket
p1059
(dp1060
g3
g4
sg5
g1057
sg10
g6
(S'\x07\xde\t\x07\x12\x00\x00\x00\x00\x00'
p1061
tp1062
Rp1063
sbI50
tp1064
a((itrends.time_bucket
TimeBucket
p1065
(dp1066
g3
g4
sg5
g1063
sg10
g6
(S'\x07\xde\t\x07\x14\x00\x00\x00\x00\x00'
p1067
tp1068
Rp1069
sbI129
tp1070
a((itrends.time_bucket
TimeBucket
p1071
(dp1072
g3
g4
sg5
g1069
sg10
g6
(S'\x07\xde\t\x07\x16\x00\x00\x00\x00\x00'
p1073
tp1074
Rp1075
sbI84
tp1076
a((itrends.time_bucket
TimeBucket
p1077
(dp1078
g3
g4
sg5
g1075
sg10
g6
(S'\x07\xde\t\x08\x00\x00\x00\x00\x00\x00'
p1079
tp1080
Rp1081
sbI67
tp1082
a((itrends.time_bucket
TimeBucket
p1083
(dp1084
g3
g4
sg5
g1081
sg10
g6
(S'\x07\xde\t\x08\x02\x00\x00\x00\x00\x00'
p1085
tp1086
Rp1087
sbI145
tp1088
a((itrends.time_bucket
TimeBucket
p1089
(dp1090
g3
g4
sg5
g1087
sg10
g6
(S'\x07\xde\t\x08\x04\x00\x00\x00\x00\x00'
p1091
tp1092
Rp1093
sbI111
tp1094
a((itrends.time_bucket
TimeBucket
p1095
(dp1096
g3
g4
sg5
g1093
sg10
g6
(S'\x07\xde\t\x08\x06\x00\x00\x00\x00\x00'
p1097
tp1098
Rp1099
sbI69
tp1100
a((itrends.time_bucket
TimeBucket
p1101
(dp1102
g3
g4
sg5
g1099
sg10
g6
(S'\x07\xde\t\x08\x08\x00\x00\x00\x00\x00'
p1103
tp1104
Rp1105
sbI52
tp1106
a((itrends.time_bucket
TimeBucket
p1107
(dp1108
g3
g4
sg5
g1105
sg10
g6
(S'\x07\xde\t\x08\n\x00\x00\x00\x00\x00'
p1109
tp1110
Rp1111
sbI71
tp1112
a((itrends.time_bucket
TimeBucket
p1113
(dp1114
g3
g4
sg5
g1111
sg10
g6
(S'\x07\xde\t\x08\x0c\x00\x00\x00\x00\x00'
p1115
tp1116
Rp1117
sbI75
tp1118
a((itrends.time_bucket
TimeBucket
p1119
(dp1120
g3
g4
sg5
g1117
sg10
g6
(S'\x07\xde\t\x08\x0e\x00\x00\x00\x00\x00'
p1121
tp1122
Rp1123
sbI114
tp1124
a((itrends.time_bucket
TimeBucket
p1125
(dp1126
g3
g4
sg5
g1123
sg10
g6
(S'\x07\xde\t\x08\x10\x00\x00\x00\x00\x00'
p1127
tp1128
Rp1129
sbI97
tp1130
a((itrends.time_bucket
TimeBucket
p1131
(dp1132
g3
g4
sg5
g1129
sg10
g6
(S'\x07\xde\t\x08\x12\x00\x00\x00\x00\x00'
p1133
tp1134
Rp1135
sbI138
tp1136
a((itrends.time_bucket
TimeBucket
p1137
(dp1138
g3
g4
sg5
g1135
sg10
g6
(S'\x07\xde\t\x08\x14\x00\x00\x00\x00\x00'
p1139
tp1140
Rp1141
sbI160
tp1142
a((itrends.time_bucket
TimeBucket
p1143
(dp1144
g3
g4
sg5
g1141
sg10
g6
(S'\x07\xde\t\x08\x16\x00\x00\x00\x00\x00'
p1145
tp1146
Rp1147
sbI116
tp1148
a((itrends.time_bucket
TimeBucket
p1149
(dp1150
g3
g4
sg5
g1147
sg10
g6
(S'\x07\xde\t\t\x00\x00\x00\x00\x00\x00'
p1151
tp1152
Rp1153
sbI78
tp1154
a((itrends.time_bucket
TimeBucket
p1155
(dp1156
g3
g4
sg5
g1153
sg10
g6
(S'\x07\xde\t\t\x02\x00\x00\x00\x00\x00'
p1157
tp1158
Rp1159
sbI117
tp1160
a((itrends.time_bucket
TimeBucket
p1161
(dp1162
g3
g4
sg5
g1159
sg10
g6
(S'\x07\xde\t\t\x04\x00\x00\x00\x00\x00'
p1163
tp1164
Rp1165
sbI66
tp1166
a((itrends.time_bucket
TimeBucket
p1167
(dp1168
g3
g4
sg5
g1165
sg10
g6
(S'\x07\xde\t\t\x06\x00\x00\x00\x00\x00'
p1169
tp1170
Rp1171
sbI60
tp1172
a((itrends.time_bucket
TimeBucket
p1173
(dp1174
g3
g4
sg5
g1171
sg10
g6
(S'\x07\xde\t\t\x08\x00\x00\x00\x00\x00'
p1175
tp1176
Rp1177
sbI55
tp1178
a((itrends.time_bucket
TimeBucket
p1179
(dp1180
g3
g4
sg5
g1177
sg10
g6
(S'\x07\xde\t\t\n\x00\x00\x00\x00\x00'
p1181
tp1182
Rp1183
sbI74
tp1184
a((itrends.time_bucket
TimeBucket
p1185
(dp1186
g3
g4
sg5
g1183
sg10
g6
(S'\x07\xde\t\t\x0c\x00\x00\x00\x00\x00'
p1187
tp1188
Rp1189
sbI83
tp1190
a((itrends.time_bucket
TimeBucket
p1191
(dp1192
g3
g4
sg5
g1189
sg10
g6
(S'\x07\xde\t\t\x0e\x00\x00\x00\x00\x00'
p1193
tp1194
Rp1195
sbI134
tp1196
a((itrends.time_bucket
TimeBucket
p1197
(dp1198
g3
g4
sg5
g1195
sg10
g6
(S'\x07\xde\t\t\x10\x00\x00\x00\x00\x00'
p1199
tp1200
Rp1201
sbI140
tp1202
a((itrends.time_bucket
TimeBucket
p1203
(dp1204
g3
g4
sg5
g1201
sg10
g6
(S'\x07\xde\t\t\x12\x00\x00\x00\x00\x00'
p1205
tp1206
Rp1207
sbI167
tp1208
a((itrends.time_bucket
TimeBucket
p1209
(dp1210
g3
g4
sg5
g1207
sg10
g6
(S'\x07\xde\t\t\x14\x00\x00\x00\x00\x00'
p1211
tp1212
Rp1213
sbI142
tp1214
a((itrends.time_bucket
TimeBucket
p1215
(dp1216
g3
g4
sg5
g1213
sg10
g6
(S'\x07\xde\t\t\x16\x00\x00\x00\x00\x00'
p1217
tp1218
Rp1219
sbI97
tp1220
a((itrends.time_bucket
TimeBucket
p1221
(dp1222
g3
g4
sg5
g1219
sg10
g6
(S'\x07\xde\t\n\x00\x00\x00\x00\x00\x00'
p1223
tp1224
Rp1225
sbI108
tp1226
a((itrends.time_bucket
TimeBucket
p1227
(dp1228
g3
g4
sg5
g1225
sg10
g6
(S'\x07\xde\t\n\x02\x00\x00\x00\x00\x00'
p1229
tp1230
Rp1231
sbI95
tp1232
a((itrends.time_bucket
TimeBucket
p1233
(dp1234
g3
g4
sg5
g1231
sg10
g6
(S'\x07\xde\t\n\x04\x00\x00\x00\x00\x00'
p1235
tp1236
Rp1237
sbI105
tp1238
a((itrends.time_bucket
TimeBucket
p1239
(dp1240
g3
g4
sg5
g1237
sg10
g6
(S'\x07\xde\t\n\x06\x00\x00\x00\x00\x00'
p1241
tp1242
Rp1243
sbI63
tp1244
a((itrends.time_bucket
TimeBucket
p1245
(dp1246
g3
g4
sg5
g1243
sg10
g6
(S'\x07\xde\t\n\x08\x00\x00\x00\x00\x00'
p1247
tp1248
Rp1249
sbI51
tp1250
a((itrends.time_bucket
TimeBucket
p1251
(dp1252
g3
g4
sg5
g1249
sg10
g6
(S'\x07\xde\t\n\n\x00\x00\x00\x00\x00'
p1253
tp1254
Rp1255
sbI48
tp1256
a((itrends.time_bucket
TimeBucket
p1257
(dp1258
g3
g4
sg5
g1255
sg10
g6
(S'\x07\xde\t\n\x0c\x00\x00\x00\x00\x00'
p1259
tp1260
Rp1261
sbI56
tp1262
a((itrends.time_bucket
TimeBucket
p1263
(dp1264
g3
g4
sg5
g1261
sg10
g6
(S'\x07\xde\t\n\x0e\x00\x00\x00\x00\x00'
p1265
tp1266
Rp1267
sbI465
tp1268
a((itrends.time_bucket
TimeBucket
p1269
(dp1270
g3
g4
sg5
g1267
sg10
g6
(S'\x07\xde\t\n\x10\x00\x00\x00\x00\x00'
p1271
tp1272
Rp1273
sbI101
tp1274
a((itrends.time_bucket
TimeBucket
p1275
(dp1276
g3
g4
sg5
g1273
sg10
g6
(S'\x07\xde\t\n\x12\x00\x00\x00\x00\x00'
p1277
tp1278
Rp1279
sbI101
tp1280
a((itrends.time_bucket
TimeBucket
p1281
(dp1282
g3
g4
sg5
g1279
sg10
g6
(S'\x07\xde\t\n\x14\x00\x00\x00\x00\x00'
p1283
tp1284
Rp1285
sbI261
tp1286
a((itrends.time_bucket
TimeBucket
p1287
(dp1288
g3
g4
sg5
g1285
sg10
g6
(S'\x07\xde\t\n\x16\x00\x00\x00\x00\x00'
p1289
tp1290
Rp1291
sbI403
tp1292
a((itrends.time_bucket
TimeBucket
p1293
(dp1294
g3
g4
sg5
g1291
sg10
g6
(S'\x07\xde\t\x0b\x00\x00\x00\x00\x00\x00'
p1295
tp1296
Rp1297
sbI135
tp1298
a((itrends.time_bucket
TimeBucket
p1299
(dp1300
g3
g4
sg5
g1297
sg10
g6
(S'\x07\xde\t\x0b\x02\x00\x00\x00\x00\x00'
p1301
tp1302
Rp1303
sbI160
tp1304
a((itrends.time_bucket
TimeBucket
p1305
(dp1306
g3
g4
sg5
g1303
sg10
g6
(S'\x07\xde\t\x0b\x04\x00\x00\x00\x00\x00'
p1307
tp1308
Rp1309
sbI131
tp1310
a((itrends.time_bucket
TimeBucket
p1311
(dp1312
g3
g4
sg5
g1309
sg10
g6
(S'\x07\xde\t\x0b\x06\x00\x00\x00\x00\x00'
p1313
tp1314
Rp1315
sbI58
tp1316
a((itrends.time_bucket
TimeBucket
p1317
(dp1318
g3
g4
sg5
g1315
sg10
g6
(S'\x07\xde\t\x0b\x08\x00\x00\x00\x00\x00'
p1319
tp1320
Rp1321
sbI65
tp1322
a((itrends.time_bucket
TimeBucket
p1323
(dp1324
g3
g4
sg5
g1321
sg10
g6
(S'\x07\xde\t\x0b\n\x00\x00\x00\x00\x00'
p1325
tp1326
Rp1327
sbI40
tp1328
a((itrends.time_bucket
TimeBucket
p1329
(dp1330
g3
g4
sg5
g1327
sg10
g6
(S'\x07\xde\t\x0b\x0c\x00\x00\x00\x00\x00'
p1331
tp1332
Rp1333
sbI59
tp1334
a((itrends.time_bucket
TimeBucket
p1335
(dp1336
g3
g4
sg5
g1333
sg10
g6
(S'\x07\xde\t\x0b\x0e\x00\x00\x00\x00\x00'
p1337
tp1338
Rp1339
sbI123
tp1340
a((itrends.time_bucket
TimeBucket
p1341
(dp1342
g3
g4
sg5
g1339
sg10
g6
(S'\x07\xde\t\x0b\x10\x00\x00\x00\x00\x00'
p1343
tp1344
Rp1345
sbI105
tp1346
a((itrends.time_bucket
TimeBucket
p1347
(dp1348
g3
g4
sg5
g1345
sg10
g6
(S'\x07\xde\t\x0b\x12\x00\x00\x00\x00\x00'
p1349
tp1350
Rp1351
sbI65
tp1352
a((itrends.time_bucket
TimeBucket
p1353
(dp1354
g3
g4
sg5
g1351
sg10
g6
(S'\x07\xde\t\x0b\x14\x00\x00\x00\x00\x00'
p1355
tp1356
Rp1357
sbI86
tp1358
a((itrends.time_bucket
TimeBucket
p1359
(dp1360
g3
g4
sg5
g1357
sg10
g6
(S'\x07\xde\t\x0b\x16\x00\x00\x00\x00\x00'
p1361
tp1362
Rp1363
sbI113
tp1364
a((itrends.time_bucket
TimeBucket
p1365
(dp1366
g3
g4
sg5
g1363
sg10
g6
(S'\x07\xde\t\x0c\x00\x00\x00\x00\x00\x00'
p1367
tp1368
Rp1369
sbI80
tp1370
a((itrends.time_bucket
TimeBucket
p1371
(dp1372
g3
g4
sg5
g1369
sg10
g6
(S'\x07\xde\t\x0c\x02\x00\x00\x00\x00\x00'
p1373
tp1374
Rp1375
sbI163
tp1376
a((itrends.time_bucket
TimeBucket
p1377
(dp1378
g3
g4
sg5
g1375
sg10
g6
(S'\x07\xde\t\x0c\x04\x00\x00\x00\x00\x00'
p1379
tp1380
Rp1381
sbI122
tp1382
a((itrends.time_bucket
TimeBucket
p1383
(dp1384
g3
g4
sg5
g1381
sg10
g6
(S'\x07\xde\t\x0c\x06\x00\x00\x00\x00\x00'
p1385
tp1386
Rp1387
sbI36
tp1388
a((itrends.time_bucket
TimeBucket
p1389
(dp1390
g3
g4
sg5
g1387
sg10
g6
(S'\x07\xde\t\x0c\x08\x00\x00\x00\x00\x00'
p1391
tp1392
Rp1393
sbI21
tp1394
a((itrends.time_bucket
TimeBucket
p1395
(dp1396
g3
g4
sg5
g1393
sg10
g6
(S'\x07\xde\t\x0c\n\x00\x00\x00\x00\x00'
p1397
tp1398
Rp1399
sbI35
tp1400
a((itrends.time_bucket
TimeBucket
p1401
(dp1402
g3
g4
sg5
g1399
sg10
g6
(S'\x07\xde\t\x0c\x0c\x00\x00\x00\x00\x00'
p1403
tp1404
Rp1405
sbI39
tp1406
a((itrends.time_bucket
TimeBucket
p1407
(dp1408
g3
g4
sg5
g1405
sg10
g6
(S'\x07\xde\t\x0c\x0e\x00\x00\x00\x00\x00'
p1409
tp1410
Rp1411
sbI84
tp1412
a((itrends.time_bucket
TimeBucket
p1413
(dp1414
g3
g4
sg5
g1411
sg10
g6
(S'\x07\xde\t\x0c\x10\x00\x00\x00\x00\x00'
p1415
tp1416
Rp1417
sbI135
tp1418
a((itrends.time_bucket
TimeBucket
p1419
(dp1420
g3
g4
sg5
g1417
sg10
g6
(S'\x07\xde\t\x0c\x12\x00\x00\x00\x00\x00'
p1421
tp1422
Rp1423
sbI138
tp1424
a((itrends.time_bucket
TimeBucket
p1425
(dp1426
g3
g4
sg5
g1423
sg10
g6
(S'\x07\xde\t\x0c\x14\x00\x00\x00\x00\x00'
p1427
tp1428
Rp1429
sbI114
tp1430
a((itrends.time_bucket
TimeBucket
p1431
(dp1432
g3
g4
sg5
g1429
sg10
g6
(S'\x07\xde\t\x0c\x16\x00\x00\x00\x00\x00'
p1433
tp1434
Rp1435
sbI95
tp1436
a((itrends.time_bucket
TimeBucket
p1437
(dp1438
g3
g4
sg5
g1435
sg10
g6
(S'\x07\xde\t\r\x00\x00\x00\x00\x00\x00'
p1439
tp1440
Rp1441
sbI99
tp1442
a((itrends.time_bucket
TimeBucket
p1443
(dp1444
g3
g4
sg5
g1441
sg10
g6
(S'\x07\xde\t\r\x02\x00\x00\x00\x00\x00'
p1445
tp1446
Rp1447
sbI203
tp1448
a((itrends.time_bucket
TimeBucket
p1449
(dp1450
g3
g4
sg5
g1447
sg10
g6
(S'\x07\xde\t\r\x04\x00\x00\x00\x00\x00'
p1451
tp1452
Rp1453
sbI60
tp1454
a((itrends.time_bucket
TimeBucket
p1455
(dp1456
g3
g4
sg5
g1453
sg10
g6
(S'\x07\xde\t\r\x06\x00\x00\x00\x00\x00'
p1457
tp1458
Rp1459
sbI40
tp1460
a((itrends.time_bucket
TimeBucket
p1461
(dp1462
g3
g4
sg5
g1459
sg10
g6
(S'\x07\xde\t\r\x08\x00\x00\x00\x00\x00'
p1463
tp1464
Rp1465
sbI32
tp1466
a((itrends.time_bucket
TimeBucket
p1467
(dp1468
g3
g4
sg5
g1465
sg10
g6
(S'\x07\xde\t\r\n\x00\x00\x00\x00\x00'
p1469
tp1470
Rp1471
sbI23
tp1472
a((itrends.time_bucket
TimeBucket
p1473
(dp1474
g3
g4
sg5
g1471
sg10
g6
(S'\x07\xde\t\r\x0c\x00\x00\x00\x00\x00'
p1475
tp1476
Rp1477
sbI22
tp1478
a((itrends.time_bucket
TimeBucket
p1479
(dp1480
g3
g4
sg5
g1477
sg10
g6
(S'\x07\xde\t\r\x0e\x00\x00\x00\x00\x00'
p1481
tp1482
Rp1483
sbI50
tp1484
a((itrends.time_bucket
TimeBucket
p1485
(dp1486
g3
g4
sg5
g1483
sg10
g6
(S'\x07\xde\t\r\x10\x00\x00\x00\x00\x00'
p1487
tp1488
Rp1489
sbI36
tp1490
a((itrends.time_bucket
TimeBucket
p1491
(dp1492
g3
g4
sg5
g1489
sg10
g6
(S'\x07\xde\t\r\x12\x00\x00\x00\x00\x00'
p1493
tp1494
Rp1495
sbI101
tp1496
a((itrends.time_bucket
TimeBucket
p1497
(dp1498
g3
g4
sg5
g1495
sg10
g6
(S'\x07\xde\t\r\x14\x00\x00\x00\x00\x00'
p1499
tp1500
Rp1501
sbI32
tp1502
a((itrends.time_bucket
TimeBucket
p1503
(dp1504
g3
g4
sg5
g1501
sg10
g6
(S'\x07\xde\t\r\x16\x00\x00\x00\x00\x00'
p1505
tp1506
Rp1507
sbI51
tp1508
a((itrends.time_bucket
TimeBucket
p1509
(dp1510
g3
g4
sg5
g1507
sg10
g6
(S'\x07\xde\t\x0e\x00\x00\x00\x00\x00\x00'
p1511
tp1512
Rp1513
sbI92
tp1514
a((itrends.time_bucket
TimeBucket
p1515
(dp1516
g3
g4
sg5
g1513
sg10
g6
(S'\x07\xde\t\x0e\x02\x00\x00\x00\x00\x00'
p1517
tp1518
Rp1519
sbI183
tp1520
a((itrends.time_bucket
TimeBucket
p1521
(dp1522
g3
g4
sg5
g1519
sg10
g6
(S'\x07\xde\t\x0e\x04\x00\x00\x00\x00\x00'
p1523
tp1524
Rp1525
sbI62
tp1526
a((itrends.time_bucket
TimeBucket
p1527
(dp1528
g3
g4
sg5
g1525
sg10
g6
(S'\x07\xde\t\x0e\x06\x00\x00\x00\x00\x00'
p1529
tp1530
Rp1531
sbI41
tp1532
a((itrends.time_bucket
TimeBucket
p1533
(dp1534
g3
g4
sg5
g1531
sg10
g6
(S'\x07\xde\t\x0e\x08\x00\x00\x00\x00\x00'
p1535
tp1536
Rp1537
sbI21
tp1538
a((itrends.time_bucket
TimeBucket
p1539
(dp1540
g3
g4
sg5
g1537
sg10
g6
(S'\x07\xde\t\x0e\n\x00\x00\x00\x00\x00'
p1541
tp1542
Rp1543
sbI13
tp1544
a((itrends.time_bucket
TimeBucket
p1545
(dp1546
g3
g4
sg5
g1543
sg10
g6
(S'\x07\xde\t\x0e\x0c\x00\x00\x00\x00\x00'
p1547
tp1548
Rp1549
sbI29
tp1550
a((itrends.time_bucket
TimeBucket
p1551
(dp1552
g3
g4
sg5
g1549
sg10
g6
(S'\x07\xde\t\x0e\x0e\x00\x00\x00\x00\x00'
p1553
tp1554
Rp1555
sbI31
tp1556
a((itrends.time_bucket
TimeBucket
p1557
(dp1558
g3
g4
sg5
g1555
sg10
g6
(S'\x07\xde\t\x0e\x10\x00\x00\x00\x00\x00'
p1559
tp1560
Rp1561
sbI50
tp1562
a((itrends.time_bucket
TimeBucket
p1563
(dp1564
g3
g4
sg5
g1561
sg10
g6
(S'\x07\xde\t\x0e\x12\x00\x00\x00\x00\x00'
p1565
tp1566
Rp1567
sbI47
tp1568
a((itrends.time_bucket
TimeBucket
p1569
(dp1570
g3
g4
sg5
g1567
sg10
g6
(S'\x07\xde\t\x0e\x14\x00\x00\x00\x00\x00'
p1571
tp1572
Rp1573
sbI48
tp1574
a((itrends.time_bucket
TimeBucket
p1575
(dp1576
g3
g4
sg5
g1573
sg10
g6
(S'\x07\xde\t\x0e\x16\x00\x00\x00\x00\x00'
p1577
tp1578
Rp1579
sbI42
tp1580
a((itrends.time_bucket
TimeBucket
p1581
(dp1582
g3
g4
sg5
g1579
sg10
g6
(S'\x07\xde\t\x0f\x00\x00\x00\x00\x00\x00'
p1583
tp1584
Rp1585
sbI137
tp1586
a((itrends.time_bucket
TimeBucket
p1587
(dp1588
g3
g4
sg5
g1585
sg10
g6
(S'\x07\xde\t\x0f\x02\x00\x00\x00\x00\x00'
p1589
tp1590
Rp1591
sbI224
tp1592
a((itrends.time_bucket
TimeBucket
p1593
(dp1594
g3
g4
sg5
g1591
sg10
g6
(S'\x07\xde\t\x0f\x04\x00\x00\x00\x00\x00'
p1595
tp1596
Rp1597
sbI37
tp1598
a((itrends.time_bucket
TimeBucket
p1599
(dp1600
g3
g4
sg5
g1597
sg10
g6
(S'\x07\xde\t\x0f\x06\x00\x00\x00\x00\x00'
p1601
tp1602
Rp1603
sbI22
tp1604
a((itrends.time_bucket
TimeBucket
p1605
(dp1606
g3
g4
sg5
g1603
sg10
g6
(S'\x07\xde\t\x0f\x08\x00\x00\x00\x00\x00'
p1607
tp1608
Rp1609
sbI13
tp1610
a((itrends.time_bucket
TimeBucket
p1611
(dp1612
g3
g4
sg5
g1609
sg10
g6
(S'\x07\xde\t\x0f\n\x00\x00\x00\x00\x00'
p1613
tp1614
Rp1615
sbI60
tp1616
a((itrends.time_bucket
TimeBucket
p1617
(dp1618
g3
g4
sg5
g1615
sg10
g6
(S'\x07\xde\t\x0f\x0c\x00\x00\x00\x00\x00'
p1619
tp1620
Rp1621
sbI128
tp1622
a((itrends.time_bucket
TimeBucket
p1623
(dp1624
g3
g4
sg5
g1621
sg10
g6
(S'\x07\xde\t\x0f\x0e\x00\x00\x00\x00\x00'
p1625
tp1626
Rp1627
sbI137
tp1628
a((itrends.time_bucket
TimeBucket
p1629
(dp1630
g3
g4
sg5
g1627
sg10
g6
(S'\x07\xde\t\x0f\x10\x00\x00\x00\x00\x00'
p1631
tp1632
Rp1633
sbI145
tp1634
a((itrends.time_bucket
TimeBucket
p1635
(dp1636
g3
g4
sg5
g1633
sg10
g6
(S'\x07\xde\t\x0f\x12\x00\x00\x00\x00\x00'
p1637
tp1638
Rp1639
sbI138
tp1640
a((itrends.time_bucket
TimeBucket
p1641
(dp1642
g3
g4
sg5
g1639
sg10
g6
(S'\x07\xde\t\x0f\x14\x00\x00\x00\x00\x00'
p1643
tp1644
Rp1645
sbI111
tp1646
a((itrends.time_bucket
TimeBucket
p1647
(dp1648
g3
g4
sg5
g1645
sg10
g6
(S'\x07\xde\t\x0f\x16\x00\x00\x00\x00\x00'
p1649
tp1650
Rp1651
sbI145
tp1652
a((itrends.time_bucket
TimeBucket
p1653
(dp1654
g3
g4
sg5
g1651
sg10
g6
(S'\x07\xde\t\x10\x00\x00\x00\x00\x00\x00'
p1655
tp1656
Rp1657
sbI188
tp1658
a((itrends.time_bucket
TimeBucket
p1659
(dp1660
g3
g4
sg5
g1657
sg10
g6
(S'\x07\xde\t\x10\x02\x00\x00\x00\x00\x00'
p1661
tp1662
Rp1663
sbI174
tp1664
a((itrends.time_bucket
TimeBucket
p1665
(dp1666
g3
g4
sg5
g1663
sg10
g6
(S'\x07\xde\t\x10\x04\x00\x00\x00\x00\x00'
p1667
tp1668
Rp1669
sbI91
tp1670
a((itrends.time_bucket
TimeBucket
p1671
(dp1672
g3
g4
sg5
g1669
sg10
g6
(S'\x07\xde\t\x10\x06\x00\x00\x00\x00\x00'
p1673
tp1674
Rp1675
sbI52
tp1676
a((itrends.time_bucket
TimeBucket
p1677
(dp1678
g3
g4
sg5
g1675
sg10
g6
(S'\x07\xde\t\x10\x08\x00\x00\x00\x00\x00'
p1679
tp1680
Rp1681
sbI41
tp1682
a((itrends.time_bucket
TimeBucket
p1683
(dp1684
g3
g4
sg5
g1681
sg10
g6
(S'\x07\xde\t\x10\n\x00\x00\x00\x00\x00'
p1685
tp1686
Rp1687
sbI80
tp1688
a((itrends.time_bucket
TimeBucket
p1689
(dp1690
g3
g4
sg5
g1687
sg10
g6
(S'\x07\xde\t\x10\x0c\x00\x00\x00\x00\x00'
p1691
tp1692
Rp1693
sbI65
tp1694
a((itrends.time_bucket
TimeBucket
p1695
(dp1696
g3
g4
sg5
g1693
sg10
g6
(S'\x07\xde\t\x10\x0e\x00\x00\x00\x00\x00'
p1697
tp1698
Rp1699
sbI102
tp1700
a((itrends.time_bucket
TimeBucket
p1701
(dp1702
g3
g4
sg5
g1699
sg10
g6
(S'\x07\xde\t\x10\x10\x00\x00\x00\x00\x00'
p1703
tp1704
Rp1705
sbI112
tp1706
a((itrends.time_bucket
TimeBucket
p1707
(dp1708
g3
g4
sg5
g1705
sg10
g6
(S'\x07\xde\t\x10\x12\x00\x00\x00\x00\x00'
p1709
tp1710
Rp1711
sbI125
tp1712
a((itrends.time_bucket
TimeBucket
p1713
(dp1714
g3
g4
sg5
g1711
sg10
g6
(S'\x07\xde\t\x10\x14\x00\x00\x00\x00\x00'
p1715
tp1716
Rp1717
sbI105
tp1718
a((itrends.time_bucket
TimeBucket
p1719
(dp1720
g3
g4
sg5
g1717
sg10
g6
(S'\x07\xde\t\x10\x16\x00\x00\x00\x00\x00'
p1721
tp1722
Rp1723
sbI72
tp1724
a((itrends.time_bucket
TimeBucket
p1725
(dp1726
g3
g4
sg5
g1723
sg10
g6
(S'\x07\xde\t\x11\x00\x00\x00\x00\x00\x00'
p1727
tp1728
Rp1729
sbI139
tp1730
a((itrends.time_bucket
TimeBucket
p1731
(dp1732
g3
g4
sg5
g1729
sg10
g6
(S'\x07\xde\t\x11\x02\x00\x00\x00\x00\x00'
p1733
tp1734
Rp1735
sbI241
tp1736
a((itrends.time_bucket
TimeBucket
p1737
(dp1738
g3
g4
sg5
g1735
sg10
g6
(S'\x07\xde\t\x11\x04\x00\x00\x00\x00\x00'
p1739
tp1740
Rp1741
sbI300
tp1742
a((itrends.time_bucket
TimeBucket
p1743
(dp1744
g3
g4
sg5
g1741
sg10
g6
(S'\x07\xde\t\x11\x06\x00\x00\x00\x00\x00'
p1745
tp1746
Rp1747
sbI137
tp1748
a((itrends.time_bucket
TimeBucket
p1749
(dp1750
g3
g4
sg5
g1747
sg10
g6
(S'\x07\xde\t\x11\x08\x00\x00\x00\x00\x00'
p1751
tp1752
Rp1753
sbI82
tp1754
a((itrends.time_bucket
TimeBucket
p1755
(dp1756
g3
g4
sg5
g1753
sg10
g6
(S'\x07\xde\t\x11\n\x00\x00\x00\x00\x00'
p1757
tp1758
Rp1759
sbI107
tp1760
a((itrends.time_bucket
TimeBucket
p1761
(dp1762
g3
g4
sg5
g1759
sg10
g6
(S'\x07\xde\t\x11\x0c\x00\x00\x00\x00\x00'
p1763
tp1764
Rp1765
sbI128
tp1766
a((itrends.time_bucket
TimeBucket
p1767
(dp1768
g3
g4
sg5
g1765
sg10
g6
(S'\x07\xde\t\x11\x0e\x00\x00\x00\x00\x00'
p1769
tp1770
Rp1771
sbI173
tp1772
a((itrends.time_bucket
TimeBucket
p1773
(dp1774
g3
g4
sg5
g1771
sg10
g6
(S'\x07\xde\t\x11\x10\x00\x00\x00\x00\x00'
p1775
tp1776
Rp1777
sbI152
tp1778
a((itrends.time_bucket
TimeBucket
p1779
(dp1780
g3
g4
sg5
g1777
sg10
g6
(S'\x07\xde\t\x11\x12\x00\x00\x00\x00\x00'
p1781
tp1782
Rp1783
sbI156
tp1784
a((itrends.time_bucket
TimeBucket
p1785
(dp1786
g3
g4
sg5
g1783
sg10
g6
(S'\x07\xde\t\x11\x14\x00\x00\x00\x00\x00'
p1787
tp1788
Rp1789
sbI164
tp1790
a((itrends.time_bucket
TimeBucket
p1791
(dp1792
g3
g4
sg5
g1789
sg10
g6
(S'\x07\xde\t\x11\x16\x00\x00\x00\x00\x00'
p1793
tp1794
Rp1795
sbI122
tp1796
a((itrends.time_bucket
TimeBucket
p1797
(dp1798
g3
g4
sg5
g1795
sg10
g6
(S'\x07\xde\t\x12\x00\x00\x00\x00\x00\x00'
p1799
tp1800
Rp1801
sbI181
tp1802
a((itrends.time_bucket
TimeBucket
p1803
(dp1804
g3
g4
sg5
g1801
sg10
g6
(S'\x07\xde\t\x12\x02\x00\x00\x00\x00\x00'
p1805
tp1806
Rp1807
sbI124
tp1808
a((itrends.time_bucket
TimeBucket
p1809
(dp1810
g3
g4
sg5
g1807
sg10
g6
(S'\x07\xde\t\x12\x04\x00\x00\x00\x00\x00'
p1811
tp1812
Rp1813
sbI63
tp1814
a((itrends.time_bucket
TimeBucket
p1815
(dp1816
g3
g4
sg5
g1813
sg10
g6
(S'\x07\xde\t\x12\x06\x00\x00\x00\x00\x00'
p1817
tp1818
Rp1819
sbI64
tp1820
a((itrends.time_bucket
TimeBucket
p1821
(dp1822
g3
g4
sg5
g1819
sg10
g6
(S'\x07\xde\t\x12\x08\x00\x00\x00\x00\x00'
p1823
tp1824
Rp1825
sbI53
tp1826
a((itrends.time_bucket
TimeBucket
p1827
(dp1828
g3
g4
sg5
g1825
sg10
g6
(S'\x07\xde\t\x12\n\x00\x00\x00\x00\x00'
p1829
tp1830
Rp1831
sbI56
tp1832
a((itrends.time_bucket
TimeBucket
p1833
(dp1834
g3
g4
sg5
g1831
sg10
g6
(S'\x07\xde\t\x12\x0c\x00\x00\x00\x00\x00'
p1835
tp1836
Rp1837
sbI33
tp1838
a((itrends.time_bucket
TimeBucket
p1839
(dp1840
g3
g4
sg5
g1837
sg10
g6
(S'\x07\xde\t\x12\x0e\x00\x00\x00\x00\x00'
p1841
tp1842
Rp1843
sbI123
tp1844
a((itrends.time_bucket
TimeBucket
p1845
(dp1846
g3
g4
sg5
g1843
sg10
g6
(S'\x07\xde\t\x12\x10\x00\x00\x00\x00\x00'
p1847
tp1848
Rp1849
sbI77
tp1850
a((itrends.time_bucket
TimeBucket
p1851
(dp1852
g3
g4
sg5
g1849
sg10
g6
(S'\x07\xde\t\x12\x12\x00\x00\x00\x00\x00'
p1853
tp1854
Rp1855
sbI89
tp1856
a((itrends.time_bucket
TimeBucket
p1857
(dp1858
g3
g4
sg5
g1855
sg10
g6
(S'\x07\xde\t\x12\x14\x00\x00\x00\x00\x00'
p1859
tp1860
Rp1861
sbI70
tp1862
a((itrends.time_bucket
TimeBucket
p1863
(dp1864
g3
g4
sg5
g1861
sg10
g6
(S'\x07\xde\t\x12\x16\x00\x00\x00\x00\x00'
p1865
tp1866
Rp1867
sbI78
tp1868
a((itrends.time_bucket
TimeBucket
p1869
(dp1870
g3
g4
sg5
g1867
sg10
g6
(S'\x07\xde\t\x13\x00\x00\x00\x00\x00\x00'
p1871
tp1872
Rp1873
sbI68
tp1874
a((itrends.time_bucket
TimeBucket
p1875
(dp1876
g3
g4
sg5
g1873
sg10
g6
(S'\x07\xde\t\x13\x02\x00\x00\x00\x00\x00'
p1877
tp1878
Rp1879
sbI95
tp1880
a((itrends.time_bucket
TimeBucket
p1881
(dp1882
g3
g4
sg5
g1879
sg10
g6
(S'\x07\xde\t\x13\x04\x00\x00\x00\x00\x00'
p1883
tp1884
Rp1885
sbI86
tp1886
a((itrends.time_bucket
TimeBucket
p1887
(dp1888
g3
g4
sg5
g1885
sg10
g6
(S'\x07\xde\t\x13\x06\x00\x00\x00\x00\x00'
p1889
tp1890
Rp1891
sbI127
tp1892
a((itrends.time_bucket
TimeBucket
p1893
(dp1894
g3
g4
sg5
g1891
sg10
g6
(S'\x07\xde\t\x13\x08\x00\x00\x00\x00\x00'
p1895
tp1896
Rp1897
sbI113
tp1898
a((itrends.time_bucket
TimeBucket
p1899
(dp1900
g3
g4
sg5
g1897
sg10
g6
(S'\x07\xde\t\x13\n\x00\x00\x00\x00\x00'
p1901
tp1902
Rp1903
sbI457
tp1904
a((itrends.time_bucket
TimeBucket
p1905
(dp1906
g3
g4
sg5
g1903
sg10
g6
(S'\x07\xde\t\x13\x0c\x00\x00\x00\x00\x00'
p1907
tp1908
Rp1909
sbI326
tp1910
a((itrends.time_bucket
TimeBucket
p1911
(dp1912
g3
g4
sg5
g1909
sg10
g6
(S'\x07\xde\t\x13\x0e\x00\x00\x00\x00\x00'
p1913
tp1914
Rp1915
sbI342
tp1916
a((itrends.time_bucket
TimeBucket
p1917
(dp1918
g3
g4
sg5
g1915
sg10
g6
(S'\x07\xde\t\x13\x10\x00\x00\x00\x00\x00'
p1919
tp1920
Rp1921
sbI475
tp1922
a((itrends.time_bucket
TimeBucket
p1923
(dp1924
g3
g4
sg5
g1921
sg10
g6
(S'\x07\xde\t\x13\x12\x00\x00\x00\x00\x00'
p1925
tp1926
Rp1927
sbI392
tp1928
a((itrends.time_bucket
TimeBucket
p1929
(dp1930
g3
g4
sg5
g1927
sg10
g6
(S'\x07\xde\t\x13\x14\x00\x00\x00\x00\x00'
p1931
tp1932
Rp1933
sbI2025
tp1934
a((itrends.time_bucket
TimeBucket
p1935
(dp1936
g3
g4
sg5
g1933
sg10
g6
(S'\x07\xde\t\x13\x16\x00\x00\x00\x00\x00'
p1937
tp1938
Rp1939
sbI661
tp1940
a((itrends.time_bucket
TimeBucket
p1941
(dp1942
g3
g4
sg5
g1939
sg10
g6
(S'\x07\xde\t\x14\x00\x00\x00\x00\x00\x00'
p1943
tp1944
Rp1945
sbI357
tp1946
a((itrends.time_bucket
TimeBucket
p1947
(dp1948
g3
g4
sg5
g1945
sg10
g6
(S'\x07\xde\t\x14\x02\x00\x00\x00\x00\x00'
p1949
tp1950
Rp1951
sbI453
tp1952
a((itrends.time_bucket
TimeBucket
p1953
(dp1954
g3
g4
sg5
g1951
sg10
g6
(S'\x07\xde\t\x14\x04\x00\x00\x00\x00\x00'
p1955
tp1956
Rp1957
sbI676
tp1958
a((itrends.time_bucket
TimeBucket
p1959
(dp1960
g3
g4
sg5
g1957
sg10
g6
(S'\x07\xde\t\x14\x06\x00\x00\x00\x00\x00'
p1961
tp1962
Rp1963
sbI447
tp1964
a((itrends.time_bucket
TimeBucket
p1965
(dp1966
g3
g4
sg5
g1963
sg10
g6
(S'\x07\xde\t\x14\x08\x00\x00\x00\x00\x00'
p1967
tp1968
Rp1969
sbI428
tp1970
a((itrends.time_bucket
TimeBucket
p1971
(dp1972
g3
g4
sg5
g1969
sg10
g6
(S'\x07\xde\t\x14\n\x00\x00\x00\x00\x00'
p1973
tp1974
Rp1975
sbI383
tp1976
a((itrends.time_bucket
TimeBucket
p1977
(dp1978
g3
g4
sg5
g1975
sg10
g6
(S'\x07\xde\t\x14\x0c\x00\x00\x00\x00\x00'
p1979
tp1980
Rp1981
sbI382
tp1982
a((itrends.time_bucket
TimeBucket
p1983
(dp1984
g3
g4
sg5
g1981
sg10
g6
(S'\x07\xde\t\x14\x0e\x00\x00\x00\x00\x00'
p1985
tp1986
Rp1987
sbI566
tp1988
a((itrends.time_bucket
TimeBucket
p1989
(dp1990
g3
g4
sg5
g1987
sg10
g6
(S'\x07\xde\t\x14\x10\x00\x00\x00\x00\x00'
p1991
tp1992
Rp1993
sbI786
tp1994
a((itrends.time_bucket
TimeBucket
p1995
(dp1996
g3
g4
sg5
g1993
sg10
g6
(S'\x07\xde\t\x14\x12\x00\x00\x00\x00\x00'
p1997
tp1998
Rp1999
sbI328
tp2000
a((itrends.time_bucket
TimeBucket
p2001
(dp2002
g3
g4
sg5
g1999
sg10
g6
(S'\x07\xde\t\x14\x14\x00\x00\x00\x00\x00'
p2003
tp2004
Rp2005
sbI238
tp2006
a((itrends.time_bucket
TimeBucket
p2007
(dp2008
g3
g4
sg5
g2005
sg10
g6
(S'\x07\xde\t\x14\x16\x00\x00\x00\x00\x00'
p2009
tp2010
Rp2011
sbI169
tp2012
a((itrends.time_bucket
TimeBucket
p2013
(dp2014
g3
g4
sg5
g2011
sg10
g6
(S'\x07\xde\t\x15\x00\x00\x00\x00\x00\x00'
p2015
tp2016
Rp2017
sbI550
tp2018
a((itrends.time_bucket
TimeBucket
p2019
(dp2020
g3
g4
sg5
g2017
sg10
g6
(S'\x07\xde\t\x15\x02\x00\x00\x00\x00\x00'
p2021
tp2022
Rp2023
sbI472
tp2024
a((itrends.time_bucket
TimeBucket
p2025
(dp2026
g3
g4
sg5
g2023
sg10
g6
(S'\x07\xde\t\x15\x04\x00\x00\x00\x00\x00'
p2027
tp2028
Rp2029
sbI172
tp2030
a((itrends.time_bucket
TimeBucket
p2031
(dp2032
g3
g4
sg5
g2029
sg10
g6
(S'\x07\xde\t\x15\x06\x00\x00\x00\x00\x00'
p2033
tp2034
Rp2035
sbI138
tp2036
a((itrends.time_bucket
TimeBucket
p2037
(dp2038
g3
g4
sg5
g2035
sg10
g6
(S'\x07\xde\t\x15\x08\x00\x00\x00\x00\x00'
p2039
tp2040
Rp2041
sbI163
tp2042
a((itrends.time_bucket
TimeBucket
p2043
(dp2044
g3
g4
sg5
g2041
sg10
g6
(S'\x07\xde\t\x15\n\x00\x00\x00\x00\x00'
p2045
tp2046
Rp2047
sbI233
tp2048
a((itrends.time_bucket
TimeBucket
p2049
(dp2050
g3
g4
sg5
g2047
sg10
g6
(S'\x07\xde\t\x15\x0c\x00\x00\x00\x00\x00'
p2051
tp2052
Rp2053
sbI522
tp2054
a((itrends.time_bucket
TimeBucket
p2055
(dp2056
g3
g4
sg5
g2053
sg10
g6
(S'\x07\xde\t\x15\x0e\x00\x00\x00\x00\x00'
p2057
tp2058
Rp2059
sbI471
tp2060
a((itrends.time_bucket
TimeBucket
p2061
(dp2062
g3
g4
sg5
g2059
sg10
g6
(S'\x07\xde\t\x15\x10\x00\x00\x00\x00\x00'
p2063
tp2064
Rp2065
sbI190
tp2066
a((itrends.time_bucket
TimeBucket
p2067
(dp2068
g3
g4
sg5
g2065
sg10
g6
(S'\x07\xde\t\x15\x12\x00\x00\x00\x00\x00'
p2069
tp2070
Rp2071
sbI206
tp2072
a((itrends.time_bucket
TimeBucket
p2073
(dp2074
g3
g4
sg5
g2071
sg10
g6
(S'\x07\xde\t\x15\x14\x00\x00\x00\x00\x00'
p2075
tp2076
Rp2077
sbI130
tp2078
a((itrends.time_bucket
TimeBucket
p2079
(dp2080
g3
g4
sg5
g2077
sg10
g6
(S'\x07\xde\t\x15\x16\x00\x00\x00\x00\x00'
p2081
tp2082
Rp2083
sbI88
tp2084
a((itrends.time_bucket
TimeBucket
p2085
(dp2086
g3
g4
sg5
g2083
sg10
g6
(S'\x07\xde\t\x16\x00\x00\x00\x00\x00\x00'
p2087
tp2088
Rp2089
sbI614
tp2090
a((itrends.time_bucket
TimeBucket
p2091
(dp2092
g3
g4
sg5
g2089
sg10
g6
(S'\x07\xde\t\x16\x02\x00\x00\x00\x00\x00'
p2093
tp2094
Rp2095
sbI657
tp2096
a((itrends.time_bucket
TimeBucket
p2097
(dp2098
g3
g4
sg5
g2095
sg10
g6
(S'\x07\xde\t\x16\x04\x00\x00\x00\x00\x00'
p2099
tp2100
Rp2101
sbI173
tp2102
a((itrends.time_bucket
TimeBucket
p2103
(dp2104
g3
g4
sg5
g2101
sg10
g6
(S'\x07\xde\t\x16\x06\x00\x00\x00\x00\x00'
p2105
tp2106
Rp2107
sbI176
tp2108
a((itrends.time_bucket
TimeBucket
p2109
(dp2110
g3
g4
sg5
g2107
sg10
g6
(S'\x07\xde\t\x16\x08\x00\x00\x00\x00\x00'
p2111
tp2112
Rp2113
sbI185
tp2114
a((itrends.time_bucket
TimeBucket
p2115
(dp2116
g3
g4
sg5
g2113
sg10
g6
(S'\x07\xde\t\x16\n\x00\x00\x00\x00\x00'
p2117
tp2118
Rp2119
sbI326
tp2120
a((itrends.time_bucket
TimeBucket
p2121
(dp2122
g3
g4
sg5
g2119
sg10
g6
(S'\x07\xde\t\x16\x0c\x00\x00\x00\x00\x00'
p2123
tp2124
Rp2125
sbI281
tp2126
a((itrends.time_bucket
TimeBucket
p2127
(dp2128
g3
g4
sg5
g2125
sg10
g6
(S'\x07\xde\t\x16\x0e\x00\x00\x00\x00\x00'
p2129
tp2130
Rp2131
sbI290
tp2132
a((itrends.time_bucket
TimeBucket
p2133
(dp2134
g3
g4
sg5
g2131
sg10
g6
(S'\x07\xde\t\x16\x10\x00\x00\x00\x00\x00'
p2135
tp2136
Rp2137
sbI139
tp2138
a((itrends.time_bucket
TimeBucket
p2139
(dp2140
g3
g4
sg5
g2137
sg10
g6
(S'\x07\xde\t\x16\x12\x00\x00\x00\x00\x00'
p2141
tp2142
Rp2143
sbI228
tp2144
a((itrends.time_bucket
TimeBucket
p2145
(dp2146
g3
g4
sg5
g2143
sg10
g6
(S'\x07\xde\t\x16\x14\x00\x00\x00\x00\x00'
p2147
tp2148
Rp2149
sbI306
tp2150
a((itrends.time_bucket
TimeBucket
p2151
(dp2152
g3
g4
sg5
g2149
sg10
g6
(S'\x07\xde\t\x16\x16\x00\x00\x00\x00\x00'
p2153
tp2154
Rp2155
sbI156
tp2156
a((itrends.time_bucket
TimeBucket
p2157
(dp2158
g3
g4
sg5
g2155
sg10
g6
(S'\x07\xde\t\x17\x00\x00\x00\x00\x00\x00'
p2159
tp2160
Rp2161
sbI710
tp2162
a((itrends.time_bucket
TimeBucket
p2163
(dp2164
g3
g4
sg5
g2161
sg10
g6
(S'\x07\xde\t\x17\x02\x00\x00\x00\x00\x00'
p2165
tp2166
Rp2167
sbI703
tp2168
a((itrends.time_bucket
TimeBucket
p2169
(dp2170
g3
g4
sg5
g2167
sg10
g6
(S'\x07\xde\t\x17\x04\x00\x00\x00\x00\x00'
p2171
tp2172
Rp2173
sbI271
tp2174
a((itrends.time_bucket
TimeBucket
p2175
(dp2176
g3
g4
sg5
g2173
sg10
g6
(S'\x07\xde\t\x17\x06\x00\x00\x00\x00\x00'
p2177
tp2178
Rp2179
sbI221
tp2180
a((itrends.time_bucket
TimeBucket
p2181
(dp2182
g3
g4
sg5
g2179
sg10
g6
(S'\x07\xde\t\x17\x08\x00\x00\x00\x00\x00'
p2183
tp2184
Rp2185
sbI280
tp2186
a((itrends.time_bucket
TimeBucket
p2187
(dp2188
g3
g4
sg5
g2185
sg10
g6
(S'\x07\xde\t\x17\n\x00\x00\x00\x00\x00'
p2189
tp2190
Rp2191
sbI341
tp2192
a((itrends.time_bucket
TimeBucket
p2193
(dp2194
g3
g4
sg5
g2191
sg10
g6
(S'\x07\xde\t\x17\x0c\x00\x00\x00\x00\x00'
p2195
tp2196
Rp2197
sbI516
tp2198
a((itrends.time_bucket
TimeBucket
p2199
(dp2200
g3
g4
sg5
g2197
sg10
g6
(S'\x07\xde\t\x17\x0e\x00\x00\x00\x00\x00'
p2201
tp2202
Rp2203
sbI475
tp2204
a((itrends.time_bucket
TimeBucket
p2205
(dp2206
g3
g4
sg5
g2203
sg10
g6
(S'\x07\xde\t\x17\x10\x00\x00\x00\x00\x00'
p2207
tp2208
Rp2209
sbI202
tp2210
a.